; Function Attrs: mustprogress uwtable
define hidden noundef zeroext i1 @_ZN12mpbq_manager2ltERK4mpbqS2_(ptr noundef nonnull align 8 dereferenceable(208) %0, ptr noundef nonnull align 8 dereferenceable(20) %1, ptr noundef nonnull align 8 dereferenceable(20) %2) local_unnamed_addr #3 align 2 {
  %4 = getelementptr inbounds nuw i8, ptr %1, i64 16
  %5 = load i32, ptr %4, align 8, !tbaa !13
  %6 = getelementptr inbounds nuw i8, ptr %2, i64 16
  %7 = load i32, ptr %6, align 8, !tbaa !13
  %8 = icmp eq i32 %5, %7
  br i1 %8, label %9, label %27

9:                                                ; preds = %3
  %10 = load ptr, ptr %0, align 8, !tbaa !26
  %11 = getelementptr inbounds nuw i8, ptr %1, i64 4
  %12 = load i8, ptr %11, align 4
  %13 = and i8 %12, 1
  %14 = icmp eq i8 %13, 0
  br i1 %14, label %15, label %24

15:                                               ; preds = %9
  %16 = getelementptr inbounds nuw i8, ptr %2, i64 4
  %17 = load i8, ptr %16, align 4
  %18 = and i8 %17, 1
  %19 = icmp eq i8 %18, 0
  br i1 %19, label %20, label %24

20:                                               ; preds = %15
  %21 = load i32, ptr %1, align 8, !tbaa !3
  %22 = load i32, ptr %2, align 8, !tbaa !3
  %23 = icmp slt i32 %21, %22
  br label %_ZN11mpz_managerILb0EE2ltERK3mpzS3_.exit

24:                                               ; preds = %15, %9
  %25 = tail call noundef i32 @_ZN11mpz_managerILb0EE11big_compareERK3mpzS3_(ptr noundef nonnull align 8 dereferenceable(600) %10, ptr noundef nonnull align 8 dereferenceable(16) %1, ptr noundef nonnull align 8 dereferenceable(16) %2)
  %26 = icmp slt i32 %25, 0
  br label %_ZN11mpz_managerILb0EE2ltERK3mpzS3_.exit

27:                                               ; preds = %3
  %28 = icmp ult i32 %5, %7
  %29 = load ptr, ptr %0, align 8, !tbaa !26
  %30 = getelementptr inbounds nuw i8, ptr %0, i64 8
  br i1 %28, label %31, label %60

31:                                               ; preds = %27
  %32 = sub nuw i32 %7, %5
  %33 = getelementptr inbounds nuw i8, ptr %1, i64 4
  %34 = load i8, ptr %33, align 4
  %35 = and i8 %34, 1
  %36 = icmp eq i8 %35, 0
  br i1 %36, label %37, label %42

37:                                               ; preds = %31
  %38 = load i32, ptr %1, align 8, !tbaa !3
  store i32 %38, ptr %30, align 8, !tbaa !3
  %39 = getelementptr inbounds nuw i8, ptr %0, i64 12
  %40 = load i8, ptr %39, align 4
  %41 = and i8 %40, -2
  store i8 %41, ptr %39, align 4
  br label %_ZN11mpz_managerILb0EE5mul2kERK3mpzjRS1_.exit

42:                                               ; preds = %31
  tail call void @_ZN11mpz_managerILb0EE7big_setER3mpzRKS1_(ptr noundef nonnull align 8 dereferenceable(600) %29, ptr noundef nonnull align 8 dereferenceable(16) %30, ptr noundef nonnull align 8 dereferenceable(16) %1)
  br label %_ZN11mpz_managerILb0EE5mul2kERK3mpzjRS1_.exit

_ZN11mpz_managerILb0EE5mul2kERK3mpzjRS1_.exit:    ; preds = %37, %42
  tail call void @_ZN11mpz_managerILb0EE5mul2kER3mpzj(ptr noundef nonnull align 8 dereferenceable(600) %29, ptr noundef nonnull align 8 dereferenceable(16) %30, i32 noundef %32)
  %43 = load ptr, ptr %0, align 8, !tbaa !26
  %44 = getelementptr inbounds nuw i8, ptr %0, i64 12
  %45 = load i8, ptr %44, align 4
  %46 = and i8 %45, 1
  %47 = icmp eq i8 %46, 0
  br i1 %47, label %48, label %57

48:                                               ; preds = %_ZN11mpz_managerILb0EE5mul2kERK3mpzjRS1_.exit
  %49 = getelementptr inbounds nuw i8, ptr %2, i64 4
  %50 = load i8, ptr %49, align 4
  %51 = and i8 %50, 1
  %52 = icmp eq i8 %51, 0
  br i1 %52, label %53, label %57

53:                                               ; preds = %48
  %54 = load i32, ptr %30, align 8, !tbaa !3
  %55 = load i32, ptr %2, align 8, !tbaa !3
  %56 = icmp slt i32 %54, %55
  br label %_ZN11mpz_managerILb0EE2ltERK3mpzS3_.exit

57:                                               ; preds = %48, %_ZN11mpz_managerILb0EE5mul2kERK3mpzjRS1_.exit
  %58 = tail call noundef i32 @_ZN11mpz_managerILb0EE11big_compareERK3mpzS3_(ptr noundef nonnull align 8 dereferenceable(600) %43, ptr noundef nonnull align 8 dereferenceable(16) %30, ptr noundef nonnull align 8 dereferenceable(16) %2)
  %59 = icmp slt i32 %58, 0
  br label %_ZN11mpz_managerILb0EE2ltERK3mpzS3_.exit

60:                                               ; preds = %27
  %61 = sub nuw i32 %5, %7
  %62 = getelementptr inbounds nuw i8, ptr %2, i64 4
  %63 = load i8, ptr %62, align 4
  %64 = and i8 %63, 1
  %65 = icmp eq i8 %64, 0
  br i1 %65, label %66, label %71

66:                                               ; preds = %60
  %67 = load i32, ptr %2, align 8, !tbaa !3
  store i32 %67, ptr %30, align 8, !tbaa !3
  %68 = getelementptr inbounds nuw i8, ptr %0, i64 12
  %69 = load i8, ptr %68, align 4
  %70 = and i8 %69, -2
  store i8 %70, ptr %68, align 4
  br label %_ZN11mpz_managerILb0EE5mul2kERK3mpzjRS1_.exit20

71:                                               ; preds = %60
  tail call void @_ZN11mpz_managerILb0EE7big_setER3mpzRKS1_(ptr noundef nonnull align 8 dereferenceable(600) %29, ptr noundef nonnull align 8 dereferenceable(16) %30, ptr noundef nonnull align 8 dereferenceable(16) %2)
  br label %_ZN11mpz_managerILb0EE5mul2kERK3mpzjRS1_.exit20

_ZN11mpz_managerILb0EE5mul2kERK3mpzjRS1_.exit20:  ; preds = %66, %71
  tail call void @_ZN11mpz_managerILb0EE5mul2kER3mpzj(ptr noundef nonnull align 8 dereferenceable(600) %29, ptr noundef nonnull align 8 dereferenceable(16) %30, i32 noundef %61)
  %72 = load ptr, ptr %0, align 8, !tbaa !26
  %73 = getelementptr inbounds nuw i8, ptr %1, i64 4
  %74 = load i8, ptr %73, align 4
  %75 = and i8 %74, 1
  %76 = icmp eq i8 %75, 0
  br i1 %76, label %77, label %86

77:                                               ; preds = %_ZN11mpz_managerILb0EE5mul2kERK3mpzjRS1_.exit20
  %78 = getelementptr inbounds nuw i8, ptr %0, i64 12
  %79 = load i8, ptr %78, align 4
  %80 = and i8 %79, 1
  %81 = icmp eq i8 %80, 0
  br i1 %81, label %82, label %86

82:                                               ; preds = %77
  %83 = load i32, ptr %1, align 8, !tbaa !3
  %84 = load i32, ptr %30, align 8, !tbaa !3
  %85 = icmp slt i32 %83, %84
  br label %_ZN11mpz_managerILb0EE2ltERK3mpzS3_.exit

86:                                               ; preds = %77, %_ZN11mpz_managerILb0EE5mul2kERK3mpzjRS1_.exit20
  %87 = tail call noundef i32 @_ZN11mpz_managerILb0EE11big_compareERK3mpzS3_(ptr noundef nonnull align 8 dereferenceable(600) %72, ptr noundef nonnull align 8 dereferenceable(16) %1, ptr noundef nonnull align 8 dereferenceable(16) %30)
  %88 = icmp slt i32 %87, 0
  br label %_ZN11mpz_managerILb0EE2ltERK3mpzS3_.exit

_ZN11mpz_managerILb0EE2ltERK3mpzS3_.exit:         ; preds = %86, %82, %57, %53, %24, %20
  %.0 = phi i1 [ %23, %20 ], [ %26, %24 ], [ %56, %53 ], [ %59, %57 ], [ %85, %82 ], [ %88, %86 ]
  ret i1 %.0
}